; Function Attrs: nounwind uwtable
define ptr @l_Lean_Meta_Grind_ematch___lambda__1(ptr noundef readonly captures(none) %0, ptr noundef %1, ptr noundef %2, ptr noundef %3, ptr noundef %4, ptr noundef %5, ptr noundef %6, ptr noundef %7, ptr noundef %8, ptr noundef %9, ptr noundef %10, ptr noundef %11) local_unnamed_addr #0 {
  %.val = load i32, ptr %1, align 4, !tbaa !8
  %13 = icmp eq i32 %.val, 1
  br i1 %13, label %14, label %16

14:                                               ; preds = %12
  %15 = getelementptr inbounds nuw i8, ptr %1, i64 24
  store i8 1, ptr %15, align 1, !tbaa !16
  br label %53

16:                                               ; preds = %12
  %17 = getelementptr inbounds nuw i8, ptr %1, i64 8
  %18 = load ptr, ptr %17, align 8, !tbaa !4
  %19 = getelementptr inbounds nuw i8, ptr %1, i64 16
  %20 = load ptr, ptr %19, align 8, !tbaa !4
  %21 = ptrtoint ptr %20 to i64
  %22 = and i64 %21, 1
  %.not = icmp eq i64 %22, 0
  br i1 %.not, label %23, label %lean_inc.exit41

23:                                               ; preds = %16
  %.val.i = load i32, ptr %20, align 4, !tbaa !8
  %24 = icmp sgt i32 %.val.i, 0
  br i1 %24, label %25, label %27, !prof !11

25:                                               ; preds = %23
  %26 = add nuw i32 %.val.i, 1
  store i32 %26, ptr %20, align 4, !tbaa !8
  br label %lean_inc.exit41

27:                                               ; preds = %23
  %.not.i42 = icmp eq i32 %.val.i, 0
  br i1 %.not.i42, label %lean_inc.exit41, label %28

28:                                               ; preds = %27
  tail call void @lean_inc_ref_cold(ptr noundef nonnull %20) #5
  br label %lean_inc.exit41

lean_inc.exit41:                                  ; preds = %28, %27, %25, %16
  %29 = ptrtoint ptr %18 to i64
  %30 = and i64 %29, 1
  %.not46 = icmp eq i64 %30, 0
  br i1 %.not46, label %31, label %lean_inc.exit

31:                                               ; preds = %lean_inc.exit41
  %.val.i43 = load i32, ptr %18, align 4, !tbaa !8
  %32 = icmp sgt i32 %.val.i43, 0
  br i1 %32, label %33, label %35, !prof !11

33:                                               ; preds = %31
  %34 = add nuw i32 %.val.i43, 1
  store i32 %34, ptr %18, align 4, !tbaa !8
  br label %lean_inc.exit

35:                                               ; preds = %31
  %.not.i44 = icmp eq i32 %.val.i43, 0
  br i1 %.not.i44, label %lean_inc.exit, label %36

36:                                               ; preds = %35
  tail call void @lean_inc_ref_cold(ptr noundef nonnull %18) #5
  br label %lean_inc.exit

lean_inc.exit:                                    ; preds = %36, %35, %33, %lean_inc.exit41
  %37 = ptrtoint ptr %1 to i64
  %38 = and i64 %37, 1
  %.not47 = icmp eq i64 %38, 0
  br i1 %.not47, label %39, label %lean_dec.exit

39:                                               ; preds = %lean_inc.exit
  %40 = load i32, ptr %1, align 4, !tbaa !8
  %41 = icmp sgt i32 %40, 1
  br i1 %41, label %42, label %44, !prof !11

42:                                               ; preds = %39
  %43 = add nsw i32 %40, -1
  store i32 %43, ptr %1, align 4, !tbaa !8
  br label %lean_dec.exit

44:                                               ; preds = %39
  %.not.i = icmp eq i32 %40, 0
  br i1 %.not.i, label %lean_dec.exit, label %45

45:                                               ; preds = %44
  tail call void @lean_dec_ref_cold(ptr noundef nonnull %1) #5
  br label %lean_dec.exit

lean_dec.exit:                                    ; preds = %45, %44, %42, %lean_inc.exit
  tail call void @lean_inc_heartbeat() #5
  %46 = tail call noalias ptr @mi_malloc_small(i64 noundef 32) #5
  %47 = icmp eq ptr %46, null
  br i1 %47, label %48, label %lean_alloc_ctor.exit

48:                                               ; preds = %lean_dec.exit
  tail call void @lean_internal_panic_out_of_memory() #6
  unreachable

lean_alloc_ctor.exit:                             ; preds = %lean_dec.exit
  %49 = getelementptr inbounds nuw i8, ptr %46, i64 4
  %50 = getelementptr inbounds nuw i8, ptr %46, i64 24
  store i64 1, ptr %50, align 8, !tbaa !12
  store i32 1, ptr %46, align 4, !tbaa !8
  store i32 131104, ptr %49, align 4
  %51 = getelementptr inbounds nuw i8, ptr %46, i64 8
  store ptr %18, ptr %51, align 8, !tbaa !4
  %52 = getelementptr inbounds nuw i8, ptr %46, i64 16
  store ptr %20, ptr %52, align 8, !tbaa !4
  br label %53

53:                                               ; preds = %lean_alloc_ctor.exit, %14
  %.sink = phi ptr [ %46, %lean_alloc_ctor.exit ], [ %1, %14 ]
  %54 = tail call ptr @l_Lean_PersistentArray_forM___at_Lean_Meta_Grind_EMatch_ematchTheorems___spec__1(ptr noundef %0, ptr noundef nonnull %.sink, ptr noundef %2, ptr noundef %3, ptr noundef %4, ptr noundef %5, ptr noundef %6, ptr noundef %7, ptr noundef %8, ptr noundef %9, ptr noundef %10, ptr noundef %11)
  ret ptr %54
}